target datalayout = "e-m:e-p270:32:32-p271:32:32-p272:64:64-i64:64-i128:128-f80:128-n8:16:32:64-S128"
target triple = "x86_64-pc-linux-gnu"

%class.ModelWriter = type <{ %"class.ncnn::Net", ptr, ptr, i8, [3 x i8], i32, i32, i32, i32, [4 x i8] }>
%"class.ncnn::Net" = type { ptr, %"class.ncnn::Option", ptr }
%"class.ncnn::Option" = type { i8, i32, ptr, ptr, i32, i8, i8, i8, i8, i8, i8, i8, i8, i8, i8, i8, i8, i8, i8, i8, i8, i8, i8, i8, i8, i32, i8, i8, i8, i8, i8, i8, i8, i8, i8, i8, i8, i8 }

@stderr = external global ptr, align 8
@.str = private unnamed_addr constant [24 x i8] c"create_custom_layer %s\0A\00", align 1

; Function Attrs: mustprogress uwtable
define dso_local noundef ptr @_ZN11ModelWriter19create_custom_layerEPKc(ptr noundef nonnull align 8 dereferenceable(116) %0, ptr noundef %1) unnamed_addr #3 align 2 {
  %3 = alloca ptr, align 8
  %4 = alloca ptr, align 8
  %5 = alloca ptr, align 8
  %6 = alloca ptr, align 8
  %7 = alloca i32, align 4
  store ptr %0, ptr %4, align 8, !tbaa !5
  store ptr %1, ptr %5, align 8, !tbaa !10
  %8 = load ptr, ptr %4, align 8
  call void @llvm.lifetime.start.p0(i64 8, ptr %6) #20
  %9 = load ptr, ptr %5, align 8, !tbaa !10
  %10 = call noundef ptr @_ZN4ncnn3Net19create_custom_layerEPKc(ptr noundef nonnull align 8 dereferenceable(80) %8, ptr noundef %9)
  store ptr %10, ptr %6, align 8, !tbaa !12
  %11 = load ptr, ptr %6, align 8, !tbaa !12
  %12 = icmp ne ptr %11, null
  br i1 %12, label %13, label %15

13:                                               ; preds = %2
  %14 = load ptr, ptr %6, align 8, !tbaa !12
  store ptr %14, ptr %3, align 8
  store i32 1, ptr %7, align 4
  br label %24

15:                                               ; preds = %2
  %16 = load ptr, ptr @stderr, align 8, !tbaa !14
  %17 = load ptr, ptr %5, align 8, !tbaa !10
  %18 = call i32 (ptr, ptr, ...) @fprintf(ptr noundef %16, ptr noundef @.str, ptr noundef %17) #20
  %19 = load ptr, ptr %5, align 8, !tbaa !10
  %20 = call noundef i32 @_ZN4ncnn3Net21register_custom_layerEPKcPFPNS_5LayerEPvEPFvS4_S5_ES5_(ptr noundef nonnull align 8 dereferenceable(80) %8, ptr noundef %19, ptr noundef @_Z25CustomLayer_layer_creatorPv, ptr noundef null, ptr noundef null)
  %21 = getelementptr inbounds nuw %class.ModelWriter, ptr %8, i32 0, i32 3
  store i8 1, ptr %21, align 8, !tbaa !16
  %22 = load ptr, ptr %5, align 8, !tbaa !10
  %23 = call noundef ptr @_ZN4ncnn3Net19create_custom_layerEPKc(ptr noundef nonnull align 8 dereferenceable(80) %8, ptr noundef %22)
  store ptr %23, ptr %3, align 8
  store i32 1, ptr %7, align 4
  br label %24

24:                                               ; preds = %15, %13
  call void @llvm.lifetime.end.p0(i64 8, ptr %6) #20
  %25 = load ptr, ptr %3, align 8
  ret ptr %25
}