; Function Attrs: mustprogress uwtable
define dso_local noundef ptr @_ZN11ModelWriter19create_custom_layerEPKc(ptr noundef nonnull align 8 dereferenceable(116) %0, ptr noundef %1) unnamed_addr #3 align 2 {
  %3 = tail call noundef ptr @_ZN4ncnn3Net19create_custom_layerEPKc(ptr noundef nonnull align 8 dereferenceable(80) %0, ptr noundef %1)
  %.not = icmp eq ptr %3, null
  br i1 %.not, label %4, label %10

4:                                                ; preds = %2
  %5 = load ptr, ptr @stderr, align 8, !tbaa !5
  %6 = tail call i32 (ptr, ptr, ...) @fprintf(ptr noundef %5, ptr noundef nonnull @.str, ptr noundef %1) #27
  %7 = tail call noundef i32 @_ZN4ncnn3Net21register_custom_layerEPKcPFPNS_5LayerEPvEPFvS4_S5_ES5_(ptr noundef nonnull align 8 dereferenceable(80) %0, ptr noundef %1, ptr noundef nonnull @_Z25CustomLayer_layer_creatorPv, ptr noundef null, ptr noundef null)
  %8 = getelementptr inbounds nuw i8, ptr %0, i64 96
  store i8 1, ptr %8, align 8, !tbaa !10
  %9 = tail call noundef ptr @_ZN4ncnn3Net19create_custom_layerEPKc(ptr noundef nonnull align 8 dereferenceable(80) %0, ptr noundef %1)
  br label %10

10:                                               ; preds = %2, %4
  %.0 = phi ptr [ %9, %4 ], [ %3, %2 ]
  ret ptr %.0
}